; Function Attrs: null_pointer_is_valid sspstrong uwtable
define internal void @icmpv6stat_draw(ptr noundef captures(none) %0) #0 {
  %2 = tail call i32 (i32, ptr, ...) @__printf_chk(i32 noundef 2, ptr noundef nonnull @.str.6)
  %3 = tail call i32 (i32, ptr, ...) @__printf_chk(i32 noundef 2, ptr noundef nonnull @.str.7)
  %4 = tail call i32 (i32, ptr, ...) @__printf_chk(i32 noundef 2, ptr noundef nonnull @.str.8)
  %5 = load ptr, ptr %0, align 8
  %.not = icmp eq ptr %5, null
  %spec.select = select i1 %.not, ptr @.str.10, ptr %5
  %6 = tail call i32 (i32, ptr, ...) @__printf_chk(i32 noundef 2, ptr noundef nonnull @.str.9, ptr noundef nonnull %spec.select)
  %7 = tail call i32 (i32, ptr, ...) @__printf_chk(i32 noundef 2, ptr noundef nonnull @.str.11)
  %8 = getelementptr inbounds nuw i8, ptr %0, i64 16
  %9 = load i32, ptr %8, align 8
  %.not18 = icmp eq i32 %9, 0
  br i1 %.not18, label %74, label %10

10:                                               ; preds = %1
  %11 = getelementptr inbounds nuw i8, ptr %0, i64 20
  %12 = load i32, ptr %11, align 4
  %13 = sub i32 %9, %12
  %14 = getelementptr inbounds nuw i8, ptr %0, i64 8
  %15 = load ptr, ptr %14, align 8
  %16 = tail call ptr @g_slist_sort(ptr noundef %15, ptr noundef nonnull @compare_doubles)
  store ptr %16, ptr %14, align 8
  %17 = load i32, ptr %11, align 4
  %18 = icmp eq i32 %17, 0
  %19 = icmp eq ptr %16, null
  %or.cond.i = select i1 %18, i1 true, i1 %19
  br i1 %or.cond.i, label %compute_stats.exit, label %20

20:                                               ; preds = %10
  %21 = getelementptr inbounds nuw i8, ptr %0, i64 48
  %22 = load double, ptr %21, align 8
  %23 = uitofp i32 %17 to double
  %24 = fdiv double %22, %23
  %25 = and i32 %17, 1
  %.not.i = icmp eq i32 %25, 0
  br i1 %.not.i, label %30, label %26

26:                                               ; preds = %20
  %27 = lshr i32 %17, 1
  %28 = tail call ptr @g_slist_nth_data(ptr noundef nonnull %16, i32 noundef %27)
  %29 = load double, ptr %28, align 8
  br label %.lr.ph.i

30:                                               ; preds = %20
  %31 = add i32 %17, -1
  %32 = lshr i32 %31, 1
  %33 = tail call ptr @g_slist_nth_data(ptr noundef nonnull %16, i32 noundef %32)
  %34 = load double, ptr %33, align 8
  %35 = load i32, ptr %11, align 4
  %36 = lshr i32 %35, 1
  %37 = tail call ptr @g_slist_nth_data(ptr noundef nonnull %16, i32 noundef %36)
  %38 = load double, ptr %37, align 8
  %39 = fadd double %34, %38
  %40 = fmul double %39, 5.000000e-01
  br label %.lr.ph.i

.lr.ph.i:                                         ; preds = %30, %26
  %storemerge.i = phi double [ %40, %30 ], [ %29, %26 ]
  br label %41

41:                                               ; preds = %41, %.lr.ph.i
  %.043.i = phi double [ 0.000000e+00, %.lr.ph.i ], [ %45, %41 ]
  %.03442.i = phi ptr [ %16, %.lr.ph.i ], [ %47, %41 ]
  %42 = load ptr, ptr %.03442.i, align 8
  %43 = load double, ptr %42, align 8
  %44 = fsub double %43, %24
  %45 = tail call double @llvm.fmuladd.f64(double %44, double %44, double %.043.i)
  %46 = getelementptr inbounds nuw i8, ptr %.03442.i, i64 8
  %47 = load ptr, ptr %46, align 8
  %.not38.i = icmp eq ptr %47, null
  br i1 %.not38.i, label %._crit_edge.i, label %41, !llvm.loop !7

._crit_edge.i:                                    ; preds = %41
  %48 = load i32, ptr %11, align 4
  %49 = icmp ugt i32 %48, 1
  br i1 %49, label %50, label %compute_stats.exit

50:                                               ; preds = %._crit_edge.i
  %51 = add i32 %48, -1
  %52 = uitofp i32 %51 to double
  %53 = fdiv double %45, %52
  %54 = tail call double @sqrt(double noundef %53) #12
  %.pre = load i32, ptr %11, align 4
  br label %compute_stats.exit

compute_stats.exit:                               ; preds = %10, %._crit_edge.i, %50
  %55 = phi i32 [ %.pre, %50 ], [ %48, %._crit_edge.i ], [ %17, %10 ]
  %.022 = phi double [ %24, %50 ], [ %24, %._crit_edge.i ], [ 0.000000e+00, %10 ]
  %.0 = phi double [ %storemerge.i, %50 ], [ %storemerge.i, %._crit_edge.i ], [ 0.000000e+00, %10 ]
  %storemerge40.i = phi double [ %54, %50 ], [ 0.000000e+00, %._crit_edge.i ], [ 0.000000e+00, %10 ]
  %56 = load i32, ptr %8, align 8
  %57 = uitofp i32 %13 to double
  %58 = fmul double %57, 1.000000e+02
  %59 = uitofp i32 %56 to double
  %60 = fdiv double %58, %59
  %61 = tail call i32 (i32, ptr, ...) @__printf_chk(i32 noundef 2, ptr noundef nonnull @.str.12, i32 noundef %56, i32 noundef %55, i32 noundef %13, double noundef %60)
  %62 = tail call i32 (i32, ptr, ...) @__printf_chk(i32 noundef 2, ptr noundef nonnull @.str.13)
  %63 = getelementptr inbounds nuw i8, ptr %0, i64 32
  %64 = load double, ptr %63, align 8
  %65 = fcmp ult double %64, 0x41EFFFFFFFE00000
  %66 = select i1 %65, double %64, double 0.000000e+00
  %67 = getelementptr inbounds nuw i8, ptr %0, i64 40
  %68 = load double, ptr %67, align 8
  %69 = getelementptr inbounds nuw i8, ptr %0, i64 24
  %70 = load i32, ptr %69, align 8
  %71 = getelementptr inbounds nuw i8, ptr %0, i64 28
  %72 = load i32, ptr %71, align 4
  %73 = tail call i32 (i32, ptr, ...) @__printf_chk(i32 noundef 2, ptr noundef nonnull @.str.14, double noundef %66, double noundef %68, double noundef %.022, double noundef %.0, double noundef %storemerge40.i, i32 noundef %70, i32 noundef %72)
  br label %78

74:                                               ; preds = %1
  %75 = tail call i32 (i32, ptr, ...) @__printf_chk(i32 noundef 2, ptr noundef nonnull @.str.15)
  %76 = tail call i32 (i32, ptr, ...) @__printf_chk(i32 noundef 2, ptr noundef nonnull @.str.13)
  %77 = tail call i32 (i32, ptr, ...) @__printf_chk(i32 noundef 2, ptr noundef nonnull @.str.16)
  br label %78

78:                                               ; preds = %74, %compute_stats.exit
  %79 = tail call i32 (i32, ptr, ...) @__printf_chk(i32 noundef 2, ptr noundef nonnull @.str.7)
  ret void
}